; Function Attrs: mustprogress ssp uwtable
define void @_ZNK6open3d4core7HashMap14CheckKeyLengthERKNS0_6TensorE(ptr noundef nonnull readnone align 8 captures(none) dereferenceable(152) %0, ptr noundef nonnull align 8 dereferenceable(160) %1) local_unnamed_addr #2 align 2 personality ptr @__gxx_personality_v0 {
  %3 = alloca %"class.open3d::core::SizeVector", align 8
  call void @llvm.lifetime.start.p0(i64 48, ptr nonnull %3) #30
  %4 = getelementptr inbounds nuw i8, ptr %1, i64 8
  call void @_ZN6open3d4core10SizeVectorC1ERKS1_(ptr noundef nonnull align 8 dereferenceable(48) %3, ptr noundef nonnull align 8 dereferenceable(48) %4)
  %5 = invoke noundef i64 @_ZNK6open3d4core10SizeVector9GetLengthEv(ptr noundef nonnull align 8 dereferenceable(48) %3)
          to label %6 unwind label %11

6:                                                ; preds = %2
  %7 = load ptr, ptr %3, align 8, !tbaa !13
  %8 = getelementptr inbounds nuw i8, ptr %3, i64 16
  %9 = icmp eq ptr %7, %8
  br i1 %9, label %_ZNK6open3d4core6Tensor9GetLengthEv.exit, label %10

10:                                               ; preds = %6
  call void @free(ptr noundef %7) #30
  br label %_ZNK6open3d4core6Tensor9GetLengthEv.exit

11:                                               ; preds = %2
  %12 = landingpad { ptr, i32 }
          cleanup
  %13 = load ptr, ptr %3, align 8, !tbaa !13
  %14 = getelementptr inbounds nuw i8, ptr %3, i64 16
  %15 = icmp eq ptr %13, %14
  br i1 %15, label %_ZN6open3d4core11SmallVectorIlLj4EED2Ev.exit2.i, label %16

16:                                               ; preds = %11
  call void @free(ptr noundef %13) #30
  br label %_ZN6open3d4core11SmallVectorIlLj4EED2Ev.exit2.i

_ZN6open3d4core11SmallVectorIlLj4EED2Ev.exit2.i:  ; preds = %16, %11
  call void @llvm.lifetime.end.p0(i64 48, ptr nonnull %3) #30
  resume { ptr, i32 } %12

_ZNK6open3d4core6Tensor9GetLengthEv.exit:         ; preds = %6, %10
  call void @llvm.lifetime.end.p0(i64 48, ptr nonnull %3) #30
  %17 = icmp eq i64 %5, 0
  br i1 %17, label %18, label %19

18:                                               ; preds = %_ZNK6open3d4core6Tensor9GetLengthEv.exit
  call void @_ZN6open3d7utility6Logger9LogError_IJEEEvPKciS4_S4_DpOT_(ptr noundef nonnull @.str.1, i32 noundef 359, ptr noundef nonnull @__PRETTY_FUNCTION__._ZNK6open3d4core7HashMap14CheckKeyLengthERKNS0_6TensorE, ptr noundef nonnull @.str.58) #33
  unreachable

19:                                               ; preds = %_ZNK6open3d4core6Tensor9GetLengthEv.exit
  ret void
}